; Function Attrs: inlinehint nofree norecurse nosync nounwind memory(argmem: readwrite) uwtable
define internal void @avg_pixels2_x2_8_c(ptr noundef captures(none) %0, ptr noundef readonly captures(none) %1, i64 noundef %2, i32 noundef %3) #2 {
  %5 = getelementptr inbounds nuw i8, ptr %1, i64 1
  %6 = icmp sgt i32 %3, 0
  br i1 %6, label %.lr.ph.preheader.i, label %avg_pixels2_l2_8.exit

.lr.ph.preheader.i:                               ; preds = %4
  %sext = shl i64 %2, 32
  %7 = ashr exact i64 %sext, 32
  %wide.trip.count.i = zext nneg i32 %3 to i64
  br label %.lr.ph.i

.lr.ph.i:                                         ; preds = %.lr.ph.i, %.lr.ph.preheader.i
  %indvars.iv.i = phi i64 [ 0, %.lr.ph.preheader.i ], [ %indvars.iv.next.i, %.lr.ph.i ]
  %8 = mul nsw i64 %indvars.iv.i, %7
  %9 = getelementptr inbounds i8, ptr %1, i64 %8
  %10 = load i16, ptr %9, align 1, !tbaa !8
  %11 = zext i16 %10 to i32
  %12 = getelementptr inbounds i8, ptr %5, i64 %8
  %13 = load i16, ptr %12, align 1, !tbaa !8
  %14 = zext i16 %13 to i32
  %15 = getelementptr inbounds i8, ptr %0, i64 %8
  %16 = load i16, ptr %15, align 2, !tbaa !19
  %17 = zext i16 %16 to i32
  %18 = or i32 %14, %11
  %19 = xor i32 %14, %11
  %20 = lshr i32 %19, 1
  %21 = and i32 %20, 32639
  %22 = sub nsw i32 %18, %21
  %23 = or i32 %22, %17
  %24 = xor i32 %22, %17
  %25 = lshr i32 %24, 1
  %26 = and i32 %25, 32639
  %27 = sub nsw i32 %23, %26
  %28 = trunc i32 %27 to i16
  store i16 %28, ptr %15, align 2, !tbaa !19
  %indvars.iv.next.i = add nuw nsw i64 %indvars.iv.i, 1
  %exitcond.not.i = icmp eq i64 %indvars.iv.next.i, %wide.trip.count.i
  br i1 %exitcond.not.i, label %avg_pixels2_l2_8.exit, label %.lr.ph.i, !llvm.loop !35

avg_pixels2_l2_8.exit:                            ; preds = %.lr.ph.i, %4
  ret void
}